target datalayout = "e-m:e-p270:32:32-p271:32:32-p272:64:64-i64:64-i128:128-f80:128-n8:16:32:64-S128"
target triple = "x86_64-pc-linux-gnu"

@plugin_type = external constant [0 x i8], align 1
@na_cnt = internal global i32 0, align 4
@node_attr = internal global ptr null, align 8
@.str.6 = private unnamed_addr constant [40 x i8] c"%s: %s: mpi/pmi2: node_attr_get: key=%s\00", align 1
@__func__.node_attr_get = private unnamed_addr constant [14 x i8] c"node_attr_get\00", align 1
@.str.7 = private unnamed_addr constant [44 x i8] c"%s: %s: mpi/pmi2: out node_attr_get: val=%s\00", align 1

; Function Attrs: nounwind uwtable
define dso_local ptr @node_attr_get(ptr noundef %0) #0 {
  %2 = alloca ptr, align 8
  %3 = alloca i32, align 4
  %4 = alloca ptr, align 8
  store ptr %0, ptr %2, align 8
  call void @llvm.lifetime.start.p0(i64 4, ptr %3) #4
  call void @llvm.lifetime.start.p0(i64 8, ptr %4) #4
  store ptr null, ptr %4, align 8
  br label %5

5:                                                ; preds = %1
  br label %6

6:                                                ; preds = %5
  %7 = call i32 @slurm_get_log_level()
  %8 = icmp sge i32 %7, 7
  br i1 %8, label %9, label %11

9:                                                ; preds = %6
  %10 = load ptr, ptr %2, align 8
  call void (i32, ptr, ...) @slurm_log_var(i32 noundef 7, ptr noundef @.str.6, ptr noundef @plugin_type, ptr noundef @__func__.node_attr_get, ptr noundef %10)
  br label %11

11:                                               ; preds = %9, %6
  br label %12

12:                                               ; preds = %11
  br label %13

13:                                               ; preds = %12
  br label %14

14:                                               ; preds = %13
  br label %15

15:                                               ; preds = %14
  store i32 0, ptr %3, align 4
  br label %16

16:                                               ; preds = %39, %15
  %17 = load i32, ptr %3, align 4
  %18 = load i32, ptr @na_cnt, align 4
  %19 = icmp slt i32 %17, %18
  br i1 %19, label %20, label %42

20:                                               ; preds = %16
  %21 = load ptr, ptr %2, align 8
  %22 = load ptr, ptr @node_attr, align 8
  %23 = load i32, ptr %3, align 4
  %24 = mul nsw i32 %23, 2
  %25 = sext i32 %24 to i64
  %26 = getelementptr inbounds ptr, ptr %22, i64 %25
  %27 = load ptr, ptr %26, align 8
  %28 = call i32 @slurm_xstrcmp(ptr noundef %21, ptr noundef %27)
  %29 = icmp ne i32 %28, 0
  br i1 %29, label %38, label %30

30:                                               ; preds = %20
  %31 = load ptr, ptr @node_attr, align 8
  %32 = load i32, ptr %3, align 4
  %33 = mul nsw i32 %32, 2
  %34 = add nsw i32 %33, 1
  %35 = sext i32 %34 to i64
  %36 = getelementptr inbounds ptr, ptr %31, i64 %35
  %37 = load ptr, ptr %36, align 8
  store ptr %37, ptr %4, align 8
  br label %42

38:                                               ; preds = %20
  br label %39

39:                                               ; preds = %38
  %40 = load i32, ptr %3, align 4
  %41 = add nsw i32 %40, 1
  store i32 %41, ptr %3, align 4
  br label %16, !llvm.loop !11

42:                                               ; preds = %30, %16
  br label %43

43:                                               ; preds = %42
  br label %44

44:                                               ; preds = %43
  %45 = call i32 @slurm_get_log_level()
  %46 = icmp sge i32 %45, 7
  br i1 %46, label %47, label %49

47:                                               ; preds = %44
  %48 = load ptr, ptr %4, align 8
  call void (i32, ptr, ...) @slurm_log_var(i32 noundef 7, ptr noundef @.str.7, ptr noundef @plugin_type, ptr noundef @__func__.node_attr_get, ptr noundef %48)
  br label %49

49:                                               ; preds = %47, %44
  br label %50

50:                                               ; preds = %49
  br label %51

51:                                               ; preds = %50
  br label %52

52:                                               ; preds = %51
  br label %53

53:                                               ; preds = %52
  %54 = load ptr, ptr %4, align 8
  call void @llvm.lifetime.end.p0(i64 8, ptr %4) #4
  call void @llvm.lifetime.end.p0(i64 4, ptr %3) #4
  ret ptr %54
}