; Function Attrs: nounwind uwtable
define dso_local ptr @node_attr_get(ptr noundef %0) local_unnamed_addr #0 {
  %2 = tail call i32 @slurm_get_log_level() #5
  %3 = icmp sgt i32 %2, 6
  br i1 %3, label %4, label %5

4:                                                ; preds = %1
  tail call void (i32, ptr, ...) @slurm_log_var(i32 noundef 7, ptr noundef nonnull @.str.6, ptr noundef nonnull @plugin_type, ptr noundef nonnull @__func__.node_attr_get, ptr noundef %0) #5
  br label %5

5:                                                ; preds = %4, %1
  %6 = load i32, ptr @na_cnt, align 4
  %7 = icmp sgt i32 %6, 0
  br i1 %7, label %.lr.ph, label %.loopexit

8:                                                ; preds = %.lr.ph
  %indvars.iv.next = add nuw nsw i64 %indvars.iv, 1
  %9 = load i32, ptr @na_cnt, align 4
  %10 = sext i32 %9 to i64
  %11 = icmp slt i64 %indvars.iv.next, %10
  br i1 %11, label %.lr.ph, label %.loopexit, !llvm.loop !11

.lr.ph:                                           ; preds = %5, %8
  %indvars.iv = phi i64 [ %indvars.iv.next, %8 ], [ 0, %5 ]
  %12 = load ptr, ptr @node_attr, align 8
  %13 = shl nuw nsw i64 %indvars.iv, 1
  %14 = getelementptr inbounds nuw ptr, ptr %12, i64 %13
  %15 = load ptr, ptr %14, align 8
  %16 = tail call i32 @slurm_xstrcmp(ptr noundef %0, ptr noundef %15) #5
  %.not = icmp eq i32 %16, 0
  br i1 %.not, label %17, label %8

17:                                               ; preds = %.lr.ph
  %18 = load ptr, ptr @node_attr, align 8
  %19 = and i64 %13, 4294967294
  %20 = or disjoint i64 %19, 1
  %21 = getelementptr inbounds nuw ptr, ptr %18, i64 %20
  %22 = load ptr, ptr %21, align 8
  br label %.loopexit

.loopexit:                                        ; preds = %8, %5, %17
  %.0 = phi ptr [ %22, %17 ], [ null, %5 ], [ null, %8 ]
  %23 = tail call i32 @slurm_get_log_level() #5
  %24 = icmp sgt i32 %23, 6
  br i1 %24, label %25, label %26

25:                                               ; preds = %.loopexit
  tail call void (i32, ptr, ...) @slurm_log_var(i32 noundef 7, ptr noundef nonnull @.str.7, ptr noundef nonnull @plugin_type, ptr noundef nonnull @__func__.node_attr_get, ptr noundef %.0) #5
  br label %26

26:                                               ; preds = %25, %.loopexit
  ret ptr %.0
}